; Function Attrs: mustprogress uwtable
define hidden noundef ptr @_ZNK3sls15datatype_plugin15get_constructorEPN3euf5enodeE(ptr noundef nonnull align 8 dereferenceable(240) %0, ptr noundef readonly captures(address, ret: address, provenance) %1) local_unnamed_addr #3 align 2 {
  %.not.i20 = icmp eq ptr %1, null
  br i1 %.not.i20, label %_ZNK8datatype4util14is_constructorEPK4expr.exit._crit_edge, label %.lr.ph

.lr.ph:                                           ; preds = %2
  %3 = getelementptr inbounds nuw i8, ptr %0, i64 104
  br label %4

4:                                                ; preds = %.lr.ph, %_ZNK8datatype4util14is_constructorEPK4expr.exit.thread
  %.sroa.7.022 = phi ptr [ null, %.lr.ph ], [ %spec.select18, %_ZNK8datatype4util14is_constructorEPK4expr.exit.thread ]
  %.sroa.013.021 = phi ptr [ %1, %.lr.ph ], [ %27, %_ZNK8datatype4util14is_constructorEPK4expr.exit.thread ]
  %5 = load ptr, ptr %.sroa.013.021, align 8, !tbaa !190
  %6 = getelementptr inbounds nuw i8, ptr %5, i64 4
  %7 = load i32, ptr %6, align 4
  %8 = and i32 %7, 65535
  %9 = icmp eq i32 %8, 0
  br i1 %9, label %10, label %_ZNK8datatype4util14is_constructorEPK4expr.exit.thread

10:                                               ; preds = %4
  %11 = tail call noundef i32 @_ZNK8datatype4util3fidEv(ptr noundef nonnull align 8 dereferenceable(24) %3)
  %12 = load i32, ptr %6, align 4
  %13 = and i32 %12, 65535
  %14 = icmp eq i32 %13, 0
  br i1 %14, label %15, label %_ZNK8datatype4util14is_constructorEPK4expr.exit.thread

15:                                               ; preds = %10
  %16 = getelementptr inbounds nuw i8, ptr %5, i64 16
  %17 = load ptr, ptr %16, align 8, !tbaa !120
  %18 = getelementptr inbounds nuw i8, ptr %17, i64 24
  %19 = load ptr, ptr %18, align 8, !tbaa !125
  %.not.i.i.i.i.i = icmp eq ptr %19, null
  br i1 %.not.i.i.i.i.i, label %_ZNK8datatype4util14is_constructorEPK4expr.exit.thread, label %_ZNK8datatype4util14is_constructorEPK4expr.exit

_ZNK8datatype4util14is_constructorEPK4expr.exit:  ; preds = %15
  %20 = load i32, ptr %19, align 8, !tbaa !130
  %21 = icmp eq i32 %20, %11
  %22 = getelementptr inbounds nuw i8, ptr %19, i64 4
  %23 = load i32, ptr %22, align 4
  %24 = icmp eq i32 %23, 0
  %25 = select i1 %21, i1 %24, i1 false
  br i1 %25, label %_ZNK8datatype4util14is_constructorEPK4expr.exit._crit_edge, label %_ZNK8datatype4util14is_constructorEPK4expr.exit.thread

_ZNK8datatype4util14is_constructorEPK4expr.exit.thread: ; preds = %15, %10, %4, %_ZNK8datatype4util14is_constructorEPK4expr.exit
  %.not.i12 = icmp eq ptr %.sroa.7.022, null
  %spec.select18 = select i1 %.not.i12, ptr %.sroa.013.021, ptr %.sroa.7.022
  %26 = getelementptr inbounds nuw i8, ptr %.sroa.013.021, i64 56
  %27 = load ptr, ptr %26, align 8, !tbaa !201
  %.not.i = icmp eq ptr %spec.select18, %1
  %28 = icmp eq ptr %27, %1
  %.not19 = select i1 %.not.i, i1 %28, i1 false
  br i1 %.not19, label %_ZNK8datatype4util14is_constructorEPK4expr.exit._crit_edge, label %4

_ZNK8datatype4util14is_constructorEPK4expr.exit._crit_edge: ; preds = %_ZNK8datatype4util14is_constructorEPK4expr.exit.thread, %_ZNK8datatype4util14is_constructorEPK4expr.exit, %2
  %spec.select = phi ptr [ null, %2 ], [ %.sroa.013.021, %_ZNK8datatype4util14is_constructorEPK4expr.exit ], [ null, %_ZNK8datatype4util14is_constructorEPK4expr.exit.thread ]
  ret ptr %spec.select
}